target datalayout = "e-m:e-p270:32:32-p271:32:32-p272:64:64-i64:64-i128:128-f80:128-n8:16:32:64-S128"
target triple = "x86_64-pc-linux-gnu"

%"class.cv::DenseOpticalFlow" = type { %"class.cv::Algorithm" }
%"class.cv::Algorithm" = type { ptr }
%"class.cv::optflow::OpticalFlowSparseToDense" = type { %"class.cv::DenseOpticalFlow", i32, i32, float, i8, float, float }

; Function Attrs: mustprogress uwtable
define hidden void @_ZN2cv7optflow24OpticalFlowSparseToDense4calcERKNS_11_InputArrayES4_RKNS_17_InputOutputArrayE(ptr noundef nonnull align 8 dereferenceable(32) %0, ptr noundef nonnull align 8 dereferenceable(24) %1, ptr noundef nonnull align 8 dereferenceable(24) %2, ptr noundef nonnull align 8 dereferenceable(24) %3) unnamed_addr #0 align 2 {
  %5 = alloca ptr, align 8
  %6 = alloca ptr, align 8
  %7 = alloca ptr, align 8
  %8 = alloca ptr, align 8
  store ptr %0, ptr %5, align 8, !tbaa !52
  store ptr %1, ptr %6, align 8, !tbaa !30
  store ptr %2, ptr %7, align 8, !tbaa !30
  store ptr %3, ptr %8, align 8, !tbaa !32
  %9 = load ptr, ptr %5, align 8
  %10 = load ptr, ptr %6, align 8, !tbaa !30
  %11 = load ptr, ptr %7, align 8, !tbaa !30
  %12 = load ptr, ptr %8, align 8, !tbaa !32
  %13 = getelementptr inbounds nuw %"class.cv::optflow::OpticalFlowSparseToDense", ptr %9, i32 0, i32 1
  %14 = load i32, ptr %13, align 8, !tbaa !58
  %15 = getelementptr inbounds nuw %"class.cv::optflow::OpticalFlowSparseToDense", ptr %9, i32 0, i32 2
  %16 = load i32, ptr %15, align 4, !tbaa !60
  %17 = getelementptr inbounds nuw %"class.cv::optflow::OpticalFlowSparseToDense", ptr %9, i32 0, i32 3
  %18 = load float, ptr %17, align 8, !tbaa !61
  %19 = getelementptr inbounds nuw %"class.cv::optflow::OpticalFlowSparseToDense", ptr %9, i32 0, i32 4
  %20 = load i8, ptr %19, align 4, !tbaa !64, !range !62, !noundef !63
  %21 = trunc i8 %20 to i1
  %22 = getelementptr inbounds nuw %"class.cv::optflow::OpticalFlowSparseToDense", ptr %9, i32 0, i32 5
  %23 = load float, ptr %22, align 8, !tbaa !65
  %24 = getelementptr inbounds nuw %"class.cv::optflow::OpticalFlowSparseToDense", ptr %9, i32 0, i32 6
  %25 = load float, ptr %24, align 4, !tbaa !66
  call void @_ZN2cv7optflow28calcOpticalFlowSparseToDenseERKNS_11_InputArrayES3_RKNS_12_OutputArrayEiifbff(ptr noundef nonnull align 8 dereferenceable(24) %10, ptr noundef nonnull align 8 dereferenceable(24) %11, ptr noundef nonnull align 8 dereferenceable(24) %12, i32 noundef %14, i32 noundef %16, float noundef %18, i1 noundef zeroext %21, float noundef %23, float noundef %25)
  ret void
}