; Function Attrs: mustprogress uwtable
define hidden void @_ZN2cv7optflow24OpticalFlowSparseToDense4calcERKNS_11_InputArrayES4_RKNS_17_InputOutputArrayE(ptr noundef nonnull readonly align 8 captures(none) dereferenceable(32) %0, ptr noundef nonnull align 8 dereferenceable(24) %1, ptr noundef nonnull align 8 dereferenceable(24) %2, ptr noundef nonnull align 8 dereferenceable(24) %3) unnamed_addr #0 align 2 {
  %5 = getelementptr inbounds nuw i8, ptr %0, i64 8
  %6 = load i32, ptr %5, align 8, !tbaa !55
  %7 = getelementptr inbounds nuw i8, ptr %0, i64 12
  %8 = load i32, ptr %7, align 4, !tbaa !58
  %9 = getelementptr inbounds nuw i8, ptr %0, i64 16
  %10 = load float, ptr %9, align 8, !tbaa !59
  %11 = getelementptr inbounds nuw i8, ptr %0, i64 20
  %12 = load i8, ptr %11, align 4, !tbaa !60, !range !63, !noundef !64
  %13 = trunc nuw i8 %12 to i1
  %14 = getelementptr inbounds nuw i8, ptr %0, i64 24
  %15 = load float, ptr %14, align 8, !tbaa !61
  %16 = getelementptr inbounds nuw i8, ptr %0, i64 28
  %17 = load float, ptr %16, align 4, !tbaa !62
  tail call void @_ZN2cv7optflow28calcOpticalFlowSparseToDenseERKNS_11_InputArrayES3_RKNS_12_OutputArrayEiifbff(ptr noundef nonnull align 8 dereferenceable(24) %1, ptr noundef nonnull align 8 dereferenceable(24) %2, ptr noundef nonnull align 8 dereferenceable(24) %3, i32 noundef %6, i32 noundef %8, float noundef %10, i1 noundef zeroext %13, float noundef %15, float noundef %17)
  ret void
}